target datalayout = "e-m:e-p270:32:32-p271:32:32-p272:64:64-i64:64-i128:128-f80:128-n8:16:32:64-S128"
target triple = "x86_64-pc-linux-gnu"

%struct.Obj = type { ptr, ptr, ptr, ptr, i8, i32, i32, i8, i8, i8, i8, i8, ptr, ptr, i8, ptr, ptr, ptr, ptr, ptr, i32, i8, i8, %struct.StringArray }
%struct.StringArray = type { ptr, i32, i32 }
%struct.Type = type { i32, i32, i32, i8, i8, ptr, ptr, ptr, ptr, i32, ptr, ptr, ptr, i8, i8, ptr, ptr, i8, ptr }
%struct.Member = type { ptr, ptr, ptr, ptr, i32, i32, i32, i8, i32, i32 }
%struct.Node = type { i32, ptr, ptr, ptr, ptr, ptr, ptr, ptr, ptr, ptr, ptr, ptr, ptr, ptr, ptr, ptr, ptr, i8, ptr, ptr, ptr, ptr, ptr, ptr, i64, i64, ptr, ptr, ptr, ptr, ptr, ptr, ptr, i64, x86_fp80 }

@.str.147 = private unnamed_addr constant [23 x i8] c"  lea %d(%%rbp), %%rax\00", align 1
@.str.148 = private unnamed_addr constant [23 x i8] c"  lea %s(%%rip), %%rax\00", align 1
@.str.200 = private unnamed_addr constant [23 x i8] c"  mov %d(%%rbp), %%rax\00", align 1
@opt_fpic = external global i8, align 1
@.str.201 = private unnamed_addr constant [36 x i8] c"  data16 lea %s@tlsgd(%%rip), %%rdi\00", align 1
@.str.202 = private unnamed_addr constant [16 x i8] c"  .value 0x6666\00", align 1
@.str.203 = private unnamed_addr constant [8 x i8] c"  rex64\00", align 1
@.str.204 = private unnamed_addr constant [26 x i8] c"  call __tls_get_addr@PLT\00", align 1
@.str.205 = private unnamed_addr constant [32 x i8] c"  mov %s@GOTPCREL(%%rip), %%rax\00", align 1
@.str.206 = private unnamed_addr constant [20 x i8] c"  mov %%fs:0, %%rax\00", align 1
@.str.207 = private unnamed_addr constant [23 x i8] c"  add $%s@tpoff, %%rax\00", align 1
@.str.208 = private unnamed_addr constant [17 x i8] c"  add $%d, %%rax\00", align 1
@.str.209 = private unnamed_addr constant [14 x i8] c"not an lvalue\00", align 1

; Function Attrs: nounwind uwtable
define internal void @gen_addr(ptr noundef %0) #0 {
  %2 = alloca ptr, align 8
  store ptr %0, ptr %2, align 8, !tbaa !86
  %3 = load ptr, ptr %2, align 8, !tbaa !86
  %4 = getelementptr inbounds nuw %struct.Node, ptr %3, i32 0, i32 0
  %5 = load i32, ptr %4, align 16, !tbaa !94
  switch i32 %5, label %153 [
    i32 40, label %6
    i32 21, label %102
    i32 18, label %106
    i32 19, label %113
    i32 37, label %122
    i32 16, label %130
    i32 17, label %130
    i32 41, label %147
  ]

6:                                                ; preds = %1
  %7 = load ptr, ptr %2, align 8, !tbaa !86
  %8 = getelementptr inbounds nuw %struct.Node, ptr %7, i32 0, i32 32
  %9 = load ptr, ptr %8, align 16, !tbaa !125
  %10 = getelementptr inbounds nuw %struct.Obj, ptr %9, i32 0, i32 2
  %11 = load ptr, ptr %10, align 8, !tbaa !36
  %12 = getelementptr inbounds nuw %struct.Type, ptr %11, i32 0, i32 0
  %13 = load i32, ptr %12, align 8, !tbaa !38
  %14 = icmp eq i32 %13, 13
  br i1 %14, label %15, label %21

15:                                               ; preds = %6
  %16 = load ptr, ptr %2, align 8, !tbaa !86
  %17 = getelementptr inbounds nuw %struct.Node, ptr %16, i32 0, i32 32
  %18 = load ptr, ptr %17, align 16, !tbaa !125
  %19 = getelementptr inbounds nuw %struct.Obj, ptr %18, i32 0, i32 6
  %20 = load i32, ptr %19, align 8, !tbaa !43
  call void (ptr, ...) @println(ptr noundef @.str.200, i32 noundef %20)
  br label %157

21:                                               ; preds = %6
  %22 = load ptr, ptr %2, align 8, !tbaa !86
  %23 = getelementptr inbounds nuw %struct.Node, ptr %22, i32 0, i32 32
  %24 = load ptr, ptr %23, align 16, !tbaa !125
  %25 = getelementptr inbounds nuw %struct.Obj, ptr %24, i32 0, i32 4
  %26 = load i8, ptr %25, align 8, !tbaa !136, !range !33, !noundef !34
  %27 = trunc i8 %26 to i1
  br i1 %27, label %28, label %34

28:                                               ; preds = %21
  %29 = load ptr, ptr %2, align 8, !tbaa !86
  %30 = getelementptr inbounds nuw %struct.Node, ptr %29, i32 0, i32 32
  %31 = load ptr, ptr %30, align 16, !tbaa !125
  %32 = getelementptr inbounds nuw %struct.Obj, ptr %31, i32 0, i32 6
  %33 = load i32, ptr %32, align 8, !tbaa !43
  call void (ptr, ...) @println(ptr noundef @.str.147, i32 noundef %33)
  br label %157

34:                                               ; preds = %21
  %35 = load i8, ptr @opt_fpic, align 1, !tbaa !42, !range !33, !noundef !34
  %36 = trunc i8 %35 to i1
  br i1 %36, label %37, label %56

37:                                               ; preds = %34
  %38 = load ptr, ptr %2, align 8, !tbaa !86
  %39 = getelementptr inbounds nuw %struct.Node, ptr %38, i32 0, i32 32
  %40 = load ptr, ptr %39, align 16, !tbaa !125
  %41 = getelementptr inbounds nuw %struct.Obj, ptr %40, i32 0, i32 11
  %42 = load i8, ptr %41, align 8, !tbaa !56, !range !33, !noundef !34
  %43 = trunc i8 %42 to i1
  br i1 %43, label %44, label %50

44:                                               ; preds = %37
  %45 = load ptr, ptr %2, align 8, !tbaa !86
  %46 = getelementptr inbounds nuw %struct.Node, ptr %45, i32 0, i32 32
  %47 = load ptr, ptr %46, align 16, !tbaa !125
  %48 = getelementptr inbounds nuw %struct.Obj, ptr %47, i32 0, i32 1
  %49 = load ptr, ptr %48, align 8, !tbaa !53
  call void (ptr, ...) @println(ptr noundef @.str.201, ptr noundef %49)
  call void (ptr, ...) @println(ptr noundef @.str.202)
  call void (ptr, ...) @println(ptr noundef @.str.203)
  call void (ptr, ...) @println(ptr noundef @.str.204)
  br label %157

50:                                               ; preds = %37
  %51 = load ptr, ptr %2, align 8, !tbaa !86
  %52 = getelementptr inbounds nuw %struct.Node, ptr %51, i32 0, i32 32
  %53 = load ptr, ptr %52, align 16, !tbaa !125
  %54 = getelementptr inbounds nuw %struct.Obj, ptr %53, i32 0, i32 1
  %55 = load ptr, ptr %54, align 8, !tbaa !53
  call void (ptr, ...) @println(ptr noundef @.str.205, ptr noundef %55)
  br label %157

56:                                               ; preds = %34
  %57 = load ptr, ptr %2, align 8, !tbaa !86
  %58 = getelementptr inbounds nuw %struct.Node, ptr %57, i32 0, i32 32
  %59 = load ptr, ptr %58, align 16, !tbaa !125
  %60 = getelementptr inbounds nuw %struct.Obj, ptr %59, i32 0, i32 11
  %61 = load i8, ptr %60, align 8, !tbaa !56, !range !33, !noundef !34
  %62 = trunc i8 %61 to i1
  br i1 %62, label %63, label %69

63:                                               ; preds = %56
  call void (ptr, ...) @println(ptr noundef @.str.206)
  %64 = load ptr, ptr %2, align 8, !tbaa !86
  %65 = getelementptr inbounds nuw %struct.Node, ptr %64, i32 0, i32 32
  %66 = load ptr, ptr %65, align 16, !tbaa !125
  %67 = getelementptr inbounds nuw %struct.Obj, ptr %66, i32 0, i32 1
  %68 = load ptr, ptr %67, align 8, !tbaa !53
  call void (ptr, ...) @println(ptr noundef @.str.207, ptr noundef %68)
  br label %157

69:                                               ; preds = %56
  %70 = load ptr, ptr %2, align 8, !tbaa !86
  %71 = getelementptr inbounds nuw %struct.Node, ptr %70, i32 0, i32 2
  %72 = load ptr, ptr %71, align 16, !tbaa !96
  %73 = getelementptr inbounds nuw %struct.Type, ptr %72, i32 0, i32 0
  %74 = load i32, ptr %73, align 8, !tbaa !38
  %75 = icmp eq i32 %74, 11
  br i1 %75, label %76, label %96

76:                                               ; preds = %69
  %77 = load ptr, ptr %2, align 8, !tbaa !86
  %78 = getelementptr inbounds nuw %struct.Node, ptr %77, i32 0, i32 32
  %79 = load ptr, ptr %78, align 16, !tbaa !125
  %80 = getelementptr inbounds nuw %struct.Obj, ptr %79, i32 0, i32 8
  %81 = load i8, ptr %80, align 1, !tbaa !51, !range !33, !noundef !34
  %82 = trunc i8 %81 to i1
  br i1 %82, label %83, label %89

83:                                               ; preds = %76
  %84 = load ptr, ptr %2, align 8, !tbaa !86
  %85 = getelementptr inbounds nuw %struct.Node, ptr %84, i32 0, i32 32
  %86 = load ptr, ptr %85, align 16, !tbaa !125
  %87 = getelementptr inbounds nuw %struct.Obj, ptr %86, i32 0, i32 1
  %88 = load ptr, ptr %87, align 8, !tbaa !53
  call void (ptr, ...) @println(ptr noundef @.str.148, ptr noundef %88)
  br label %95

89:                                               ; preds = %76
  %90 = load ptr, ptr %2, align 8, !tbaa !86
  %91 = getelementptr inbounds nuw %struct.Node, ptr %90, i32 0, i32 32
  %92 = load ptr, ptr %91, align 16, !tbaa !125
  %93 = getelementptr inbounds nuw %struct.Obj, ptr %92, i32 0, i32 1
  %94 = load ptr, ptr %93, align 8, !tbaa !53
  call void (ptr, ...) @println(ptr noundef @.str.205, ptr noundef %94)
  br label %95

95:                                               ; preds = %89, %83
  br label %157

96:                                               ; preds = %69
  %97 = load ptr, ptr %2, align 8, !tbaa !86
  %98 = getelementptr inbounds nuw %struct.Node, ptr %97, i32 0, i32 32
  %99 = load ptr, ptr %98, align 16, !tbaa !125
  %100 = getelementptr inbounds nuw %struct.Obj, ptr %99, i32 0, i32 1
  %101 = load ptr, ptr %100, align 8, !tbaa !53
  call void (ptr, ...) @println(ptr noundef @.str.148, ptr noundef %101)
  br label %157

102:                                              ; preds = %1
  %103 = load ptr, ptr %2, align 8, !tbaa !86
  %104 = getelementptr inbounds nuw %struct.Node, ptr %103, i32 0, i32 4
  %105 = load ptr, ptr %104, align 16, !tbaa !109
  call void @gen_expr(ptr noundef %105)
  br label %157

106:                                              ; preds = %1
  %107 = load ptr, ptr %2, align 8, !tbaa !86
  %108 = getelementptr inbounds nuw %struct.Node, ptr %107, i32 0, i32 4
  %109 = load ptr, ptr %108, align 16, !tbaa !109
  call void @gen_expr(ptr noundef %109)
  %110 = load ptr, ptr %2, align 8, !tbaa !86
  %111 = getelementptr inbounds nuw %struct.Node, ptr %110, i32 0, i32 5
  %112 = load ptr, ptr %111, align 8, !tbaa !122
  call void @gen_addr(ptr noundef %112)
  br label %157

113:                                              ; preds = %1
  %114 = load ptr, ptr %2, align 8, !tbaa !86
  %115 = getelementptr inbounds nuw %struct.Node, ptr %114, i32 0, i32 4
  %116 = load ptr, ptr %115, align 16, !tbaa !109
  call void @gen_addr(ptr noundef %116)
  %117 = load ptr, ptr %2, align 8, !tbaa !86
  %118 = getelementptr inbounds nuw %struct.Node, ptr %117, i32 0, i32 14
  %119 = load ptr, ptr %118, align 16, !tbaa !117
  %120 = getelementptr inbounds nuw %struct.Member, ptr %119, i32 0, i32 6
  %121 = load i32, ptr %120, align 8, !tbaa !79
  call void (ptr, ...) @println(ptr noundef @.str.208, i32 noundef %121)
  br label %157

122:                                              ; preds = %1
  %123 = load ptr, ptr %2, align 8, !tbaa !86
  %124 = getelementptr inbounds nuw %struct.Node, ptr %123, i32 0, i32 18
  %125 = load ptr, ptr %124, align 16, !tbaa !127
  %126 = icmp ne ptr %125, null
  br i1 %126, label %127, label %129

127:                                              ; preds = %122
  %128 = load ptr, ptr %2, align 8, !tbaa !86
  call void @gen_expr(ptr noundef %128)
  br label %157

129:                                              ; preds = %122
  br label %153

130:                                              ; preds = %1, %1
  %131 = load ptr, ptr %2, align 8, !tbaa !86
  %132 = getelementptr inbounds nuw %struct.Node, ptr %131, i32 0, i32 2
  %133 = load ptr, ptr %132, align 16, !tbaa !96
  %134 = getelementptr inbounds nuw %struct.Type, ptr %133, i32 0, i32 0
  %135 = load i32, ptr %134, align 8, !tbaa !38
  %136 = icmp eq i32 %135, 14
  br i1 %136, label %144, label %137

137:                                              ; preds = %130
  %138 = load ptr, ptr %2, align 8, !tbaa !86
  %139 = getelementptr inbounds nuw %struct.Node, ptr %138, i32 0, i32 2
  %140 = load ptr, ptr %139, align 16, !tbaa !96
  %141 = getelementptr inbounds nuw %struct.Type, ptr %140, i32 0, i32 0
  %142 = load i32, ptr %141, align 8, !tbaa !38
  %143 = icmp eq i32 %142, 15
  br i1 %143, label %144, label %146

144:                                              ; preds = %137, %130
  %145 = load ptr, ptr %2, align 8, !tbaa !86
  call void @gen_expr(ptr noundef %145)
  br label %157

146:                                              ; preds = %137
  br label %153

147:                                              ; preds = %1
  %148 = load ptr, ptr %2, align 8, !tbaa !86
  %149 = getelementptr inbounds nuw %struct.Node, ptr %148, i32 0, i32 32
  %150 = load ptr, ptr %149, align 16, !tbaa !125
  %151 = getelementptr inbounds nuw %struct.Obj, ptr %150, i32 0, i32 6
  %152 = load i32, ptr %151, align 8, !tbaa !43
  call void (ptr, ...) @println(ptr noundef @.str.147, i32 noundef %152)
  br label %157

153:                                              ; preds = %1, %146, %129
  %154 = load ptr, ptr %2, align 8, !tbaa !86
  %155 = getelementptr inbounds nuw %struct.Node, ptr %154, i32 0, i32 3
  %156 = load ptr, ptr %155, align 8, !tbaa !87
  call void (ptr, ptr, ...) @error_tok(ptr noundef %156, ptr noundef @.str.209) #10
  unreachable

157:                                              ; preds = %147, %144, %127, %113, %106, %102, %96, %95, %63, %50, %44, %28, %15
  ret void
}