; Function Attrs: nounwind uwtable
define internal fastcc void @gen_addr(ptr noundef %0) unnamed_addr #1 {
  br label %tailrecurse

tailrecurse:                                      ; preds = %55, %1
  %.tr = phi ptr [ %0, %1 ], [ %59, %55 ]
  %2 = load i32, ptr %.tr, align 16, !tbaa !86
  switch i32 %2, label %.loopexit [
    i32 40, label %3
    i32 21, label %52
    i32 18, label %55
    i32 19, label %60
    i32 37, label %67
    i32 16, label %71
    i32 17, label %71
    i32 41, label %77
  ]

3:                                                ; preds = %tailrecurse
  %4 = getelementptr inbounds nuw i8, ptr %.tr, i64 256
  %5 = load ptr, ptr %4, align 16, !tbaa !116
  %6 = getelementptr inbounds nuw i8, ptr %5, i64 16
  %7 = load ptr, ptr %6, align 8, !tbaa !28
  %8 = load i32, ptr %7, align 8, !tbaa !29
  %9 = icmp eq i32 %8, 13
  br i1 %9, label %10, label %13

10:                                               ; preds = %3
  %11 = getelementptr inbounds nuw i8, ptr %5, i64 40
  %12 = load i32, ptr %11, align 8, !tbaa !33
  tail call void (ptr, ...) @println(ptr noundef nonnull @.str.200, i32 noundef %12)
  br label %common.ret69

13:                                               ; preds = %3
  %14 = getelementptr inbounds nuw i8, ptr %5, i64 32
  %15 = load i8, ptr %14, align 8, !tbaa !130, !range !25, !noundef !26
  %16 = trunc nuw i8 %15 to i1
  br i1 %16, label %17, label %20

17:                                               ; preds = %13
  %18 = getelementptr inbounds nuw i8, ptr %5, i64 40
  %19 = load i32, ptr %18, align 8, !tbaa !33
  tail call void (ptr, ...) @println(ptr noundef nonnull @.str.147, i32 noundef %19)
  br label %common.ret69

20:                                               ; preds = %13
  %21 = load i8, ptr @opt_fpic, align 1, !tbaa !44, !range !25, !noundef !26
  %22 = trunc nuw i8 %21 to i1
  %23 = getelementptr inbounds nuw i8, ptr %5, i64 48
  %24 = load i8, ptr %23, align 8, !tbaa !47, !range !25, !noundef !26
  %25 = trunc nuw i8 %24 to i1
  br i1 %22, label %26, label %31

26:                                               ; preds = %20
  %27 = getelementptr inbounds nuw i8, ptr %5, i64 8
  %28 = load ptr, ptr %27, align 8, !tbaa !43
  br i1 %25, label %29, label %30

29:                                               ; preds = %26
  tail call void (ptr, ...) @println(ptr noundef nonnull @.str.201, ptr noundef %28)
  tail call void (ptr, ...) @println(ptr noundef nonnull @.str.202)
  tail call void (ptr, ...) @println(ptr noundef nonnull @.str.203)
  tail call void (ptr, ...) @println(ptr noundef nonnull @.str.204)
  br label %common.ret69

30:                                               ; preds = %26
  tail call void (ptr, ...) @println(ptr noundef nonnull @.str.205, ptr noundef %28)
  br label %common.ret69

31:                                               ; preds = %20
  br i1 %25, label %32, label %36

32:                                               ; preds = %31
  tail call void (ptr, ...) @println(ptr noundef nonnull @.str.206)
  %33 = load ptr, ptr %4, align 16, !tbaa !116
  %34 = getelementptr inbounds nuw i8, ptr %33, i64 8
  %35 = load ptr, ptr %34, align 8, !tbaa !43
  tail call void (ptr, ...) @println(ptr noundef nonnull @.str.207, ptr noundef %35)
  br label %common.ret69

36:                                               ; preds = %31
  %37 = getelementptr inbounds nuw i8, ptr %.tr, i64 16
  %38 = load ptr, ptr %37, align 16, !tbaa !89
  %39 = load i32, ptr %38, align 8, !tbaa !29
  %40 = icmp eq i32 %39, 11
  br i1 %40, label %41, label %49

41:                                               ; preds = %36
  %42 = getelementptr inbounds nuw i8, ptr %5, i64 45
  %43 = load i8, ptr %42, align 1, !tbaa !41, !range !25, !noundef !26
  %44 = trunc nuw i8 %43 to i1
  %45 = getelementptr inbounds nuw i8, ptr %5, i64 8
  %46 = load ptr, ptr %45, align 8, !tbaa !43
  br i1 %44, label %47, label %48

47:                                               ; preds = %41
  tail call void (ptr, ...) @println(ptr noundef nonnull @.str.148, ptr noundef %46)
  br label %common.ret69

48:                                               ; preds = %41
  tail call void (ptr, ...) @println(ptr noundef nonnull @.str.205, ptr noundef %46)
  br label %common.ret69

49:                                               ; preds = %36
  %50 = getelementptr inbounds nuw i8, ptr %5, i64 8
  %51 = load ptr, ptr %50, align 8, !tbaa !43
  tail call void (ptr, ...) @println(ptr noundef nonnull @.str.148, ptr noundef %51)
  br label %common.ret69

52:                                               ; preds = %tailrecurse
  %53 = getelementptr inbounds nuw i8, ptr %.tr, i64 32
  %54 = load ptr, ptr %53, align 16, !tbaa !102
  tail call fastcc void @gen_expr(ptr noundef %54)
  br label %common.ret69

55:                                               ; preds = %tailrecurse
  %56 = getelementptr inbounds nuw i8, ptr %.tr, i64 32
  %57 = load ptr, ptr %56, align 16, !tbaa !102
  tail call fastcc void @gen_expr(ptr noundef %57)
  %58 = getelementptr inbounds nuw i8, ptr %.tr, i64 40
  %59 = load ptr, ptr %58, align 8, !tbaa !114
  br label %tailrecurse

common.ret69:                                     ; preds = %47, %48, %77, %76, %70, %52, %49, %32, %30, %29, %17, %10, %60
  ret void

60:                                               ; preds = %tailrecurse
  %61 = getelementptr inbounds nuw i8, ptr %.tr, i64 32
  %62 = load ptr, ptr %61, align 16, !tbaa !102
  tail call fastcc void @gen_addr(ptr noundef %62)
  %63 = getelementptr inbounds nuw i8, ptr %.tr, i64 112
  %64 = load ptr, ptr %63, align 16, !tbaa !109
  %65 = getelementptr inbounds nuw i8, ptr %64, i64 40
  %66 = load i32, ptr %65, align 8, !tbaa !76
  tail call void (ptr, ...) @println(ptr noundef nonnull @.str.208, i32 noundef %66)
  br label %common.ret69

67:                                               ; preds = %tailrecurse
  %68 = getelementptr inbounds nuw i8, ptr %.tr, i64 144
  %69 = load ptr, ptr %68, align 16, !tbaa !118
  %.not = icmp eq ptr %69, null
  br i1 %.not, label %.loopexit, label %70

70:                                               ; preds = %67
  tail call fastcc void @gen_expr(ptr noundef nonnull %.tr)
  br label %common.ret69

71:                                               ; preds = %tailrecurse, %tailrecurse
  %72 = getelementptr inbounds nuw i8, ptr %.tr, i64 16
  %73 = load ptr, ptr %72, align 16, !tbaa !89
  %74 = load i32, ptr %73, align 8, !tbaa !29
  %75 = and i32 %74, -2
  %switch = icmp eq i32 %75, 14
  br i1 %switch, label %76, label %.loopexit

76:                                               ; preds = %71
  tail call fastcc void @gen_expr(ptr noundef nonnull %.tr)
  br label %common.ret69

77:                                               ; preds = %tailrecurse
  %78 = getelementptr inbounds nuw i8, ptr %.tr, i64 256
  %79 = load ptr, ptr %78, align 16, !tbaa !116
  %80 = getelementptr inbounds nuw i8, ptr %79, i64 40
  %81 = load i32, ptr %80, align 8, !tbaa !33
  tail call void (ptr, ...) @println(ptr noundef nonnull @.str.147, i32 noundef %81)
  br label %common.ret69

.loopexit:                                        ; preds = %tailrecurse, %71, %67
  %82 = getelementptr inbounds nuw i8, ptr %.tr, i64 24
  %83 = load ptr, ptr %82, align 8, !tbaa !79
  tail call void (ptr, ptr, ...) @error_tok(ptr noundef %83, ptr noundef nonnull @.str.209) #15
  unreachable
}